; Function Attrs: mustprogress nounwind uwtable
define internal fastcc void @_ZL15GetOutputStreamRN5clang16CompilerInstanceEN4llvm9StringRefENS_13BackendActionE(ptr dead_on_unwind noalias writable align 8 %0, ptr noundef nonnull align 8 dereferenceable(352) %1, ptr %2, i64 %3, i32 noundef %4) unnamed_addr #0 {
  %6 = alloca %"class.llvm::StringRef", align 8
  %7 = alloca %"class.llvm::StringRef", align 8
  %8 = alloca %"class.llvm::StringRef", align 8
  %9 = alloca %"class.llvm::StringRef", align 8
  switch i32 %4, label %20 [
    i32 0, label %10
    i32 2, label %12
    i32 1, label %14
    i32 3, label %16
    i32 4, label %17
    i32 5, label %18
  ]

10:                                               ; preds = %5
  store ptr @.str.16, ptr %6, align 8
  %11 = getelementptr inbounds nuw i8, ptr %6, i64 8
  store i64 1, ptr %11, align 8
  tail call void @_ZN5clang16CompilerInstance23createDefaultOutputFileEbN4llvm9StringRefES2_bbb(ptr dead_on_unwind writable sret(%"class.std::unique_ptr") align 8 %0, ptr noundef nonnull align 8 dereferenceable(352) %1, i1 noundef zeroext false, ptr %2, i64 %3, ptr noundef nonnull byval(%"class.llvm::StringRef") align 8 %6, i1 noundef zeroext true, i1 noundef zeroext false, i1 noundef zeroext false) #23
  br label %21

12:                                               ; preds = %5
  store ptr @.str.17, ptr %7, align 8
  %13 = getelementptr inbounds nuw i8, ptr %7, i64 8
  store i64 2, ptr %13, align 8
  tail call void @_ZN5clang16CompilerInstance23createDefaultOutputFileEbN4llvm9StringRefES2_bbb(ptr dead_on_unwind writable sret(%"class.std::unique_ptr") align 8 %0, ptr noundef nonnull align 8 dereferenceable(352) %1, i1 noundef zeroext false, ptr %2, i64 %3, ptr noundef nonnull byval(%"class.llvm::StringRef") align 8 %7, i1 noundef zeroext true, i1 noundef zeroext false, i1 noundef zeroext false) #23
  br label %21

14:                                               ; preds = %5
  store ptr @.str.18, ptr %8, align 8
  %15 = getelementptr inbounds nuw i8, ptr %8, i64 8
  store i64 2, ptr %15, align 8
  tail call void @_ZN5clang16CompilerInstance23createDefaultOutputFileEbN4llvm9StringRefES2_bbb(ptr dead_on_unwind writable sret(%"class.std::unique_ptr") align 8 %0, ptr noundef nonnull align 8 dereferenceable(352) %1, i1 noundef zeroext true, ptr %2, i64 %3, ptr noundef nonnull byval(%"class.llvm::StringRef") align 8 %8, i1 noundef zeroext true, i1 noundef zeroext false, i1 noundef zeroext false) #23
  br label %21

16:                                               ; preds = %5
  store ptr null, ptr %0, align 8
  br label %21

17:                                               ; preds = %5
  tail call void @_ZN5clang16CompilerInstance20createNullOutputFileEv(ptr dead_on_unwind writable sret(%"class.std::unique_ptr") align 8 %0, ptr noundef nonnull align 8 dereferenceable(352) %1) #23
  br label %21

18:                                               ; preds = %5
  store ptr @.str.19, ptr %9, align 8
  %19 = getelementptr inbounds nuw i8, ptr %9, i64 8
  store i64 1, ptr %19, align 8
  tail call void @_ZN5clang16CompilerInstance23createDefaultOutputFileEbN4llvm9StringRefES2_bbb(ptr dead_on_unwind writable sret(%"class.std::unique_ptr") align 8 %0, ptr noundef nonnull align 8 dereferenceable(352) %1, i1 noundef zeroext true, ptr %2, i64 %3, ptr noundef nonnull byval(%"class.llvm::StringRef") align 8 %9, i1 noundef zeroext true, i1 noundef zeroext false, i1 noundef zeroext false) #23
  br label %21

20:                                               ; preds = %5
  unreachable

21:                                               ; preds = %18, %17, %16, %14, %12, %10
  ret void
}